; Function Attrs: mustprogress uwtable
define void @_ZN5boost3log11v2_mt_posix3ipc22reliable_message_queue5clearEv(ptr nocapture noundef nonnull readonly align 8 dereferenceable(8) %0) local_unnamed_addr #4 align 2 personality ptr @__gxx_personality_v0 {
  %2 = alloca %"class.boost::error_info", align 8
  %3 = load ptr, ptr %0, align 8, !tbaa !20
  invoke void @_ZN5boost3log11v2_mt_posix3ipc22reliable_message_queue14implementation5clearEv(ptr noundef nonnull align 8 dereferenceable(104) %3)
          to label %41 unwind label %4

4:                                                ; preds = %1
  %5 = landingpad { ptr, i32 }
          catch ptr @_ZTIN5boost9exceptionE
  %6 = extractvalue { ptr, i32 } %5, 1
  %7 = tail call i32 @llvm.eh.typeid.for.p0(ptr nonnull @_ZTIN5boost9exceptionE) #32
  %8 = icmp eq i32 %6, %7
  br i1 %8, label %9, label %42

9:                                                ; preds = %4
  %10 = extractvalue { ptr, i32 } %5, 0
  %11 = tail call ptr @__cxa_begin_catch(ptr %10) #32
  call void @llvm.lifetime.start.p0(i64 40, ptr nonnull %2) #32
  %12 = load ptr, ptr %0, align 8, !tbaa !20
  %13 = getelementptr inbounds nuw i8, ptr %12, i64 72
  invoke void @_ZN5boost10error_infoINS_3log11v2_mt_posix3ipc15object_name_tagENS3_11object_nameEEC2ERKS5_(ptr noundef nonnull align 8 dereferenceable(40) %2, ptr noundef nonnull align 8 dereferenceable(32) %13)
          to label %14 unwind label %25

14:                                               ; preds = %9
  %15 = invoke noundef nonnull align 8 dereferenceable(40) ptr @_ZN5boost16exception_detail11set_info_rvINS_10error_infoINS_3log11v2_mt_posix3ipc15object_name_tagENS5_11object_nameEEEE3setINS_9exceptionEEERKT_SE_OS8_(ptr noundef nonnull align 8 dereferenceable(40) %11, ptr noundef nonnull align 8 dereferenceable(40) %2)
          to label %_ZN5boostlsINS_9exceptionENS_3log11v2_mt_posix3ipc15object_name_tagENS4_11object_nameEEENS_9enable_ifINS_16exception_detail23derives_boost_exceptionIT_EERKSA_E4typeESD_ONS_10error_infoIT0_T1_EE.exit unwind label %27

_ZN5boostlsINS_9exceptionENS_3log11v2_mt_posix3ipc15object_name_tagENS4_11object_nameEEENS_9enable_ifINS_16exception_detail23derives_boost_exceptionIT_EERKSA_E4typeESD_ONS_10error_infoIT0_T1_EE.exit: ; preds = %14
  store ptr getelementptr inbounds inrange(-16, 32) (i8, ptr @_ZTVN5boost10error_infoINS_3log11v2_mt_posix3ipc15object_name_tagENS3_11object_nameEEE, i64 16), ptr %2, align 8, !tbaa !22
  %16 = getelementptr inbounds nuw i8, ptr %2, i64 8
  %17 = load ptr, ptr %16, align 8, !tbaa !10
  %18 = getelementptr inbounds nuw i8, ptr %2, i64 24
  %19 = icmp eq ptr %17, %18
  br i1 %19, label %_ZNKSt7__cxx1112basic_stringIcSt11char_traitsIcESaIcEE11_M_is_localEv.exit.thread.i.i.i.i, label %_ZNKSt7__cxx1112basic_stringIcSt11char_traitsIcESaIcEE11_M_is_localEv.exit.i.i.i.i

_ZNKSt7__cxx1112basic_stringIcSt11char_traitsIcESaIcEE11_M_is_localEv.exit.thread.i.i.i.i: ; preds = %_ZN5boostlsINS_9exceptionENS_3log11v2_mt_posix3ipc15object_name_tagENS4_11object_nameEEENS_9enable_ifINS_16exception_detail23derives_boost_exceptionIT_EERKSA_E4typeESD_ONS_10error_infoIT0_T1_EE.exit
  %20 = getelementptr inbounds nuw i8, ptr %2, i64 16
  %21 = load i64, ptr %20, align 8, !tbaa !13
  %22 = icmp ult i64 %21, 16
  call void @llvm.assume(i1 %22)
  br label %_ZN5boost10error_infoINS_3log11v2_mt_posix3ipc15object_name_tagENS3_11object_nameEED2Ev.exit

_ZNKSt7__cxx1112basic_stringIcSt11char_traitsIcESaIcEE11_M_is_localEv.exit.i.i.i.i: ; preds = %_ZN5boostlsINS_9exceptionENS_3log11v2_mt_posix3ipc15object_name_tagENS4_11object_nameEEENS_9enable_ifINS_16exception_detail23derives_boost_exceptionIT_EERKSA_E4typeESD_ONS_10error_infoIT0_T1_EE.exit
  %23 = load i64, ptr %18, align 8, !tbaa !12
  %24 = add i64 %23, 1
  call void @_ZdlPvm(ptr noundef %17, i64 noundef %24) #36
  br label %_ZN5boost10error_infoINS_3log11v2_mt_posix3ipc15object_name_tagENS3_11object_nameEED2Ev.exit

_ZN5boost10error_infoINS_3log11v2_mt_posix3ipc15object_name_tagENS3_11object_nameEED2Ev.exit: ; preds = %_ZNKSt7__cxx1112basic_stringIcSt11char_traitsIcESaIcEE11_M_is_localEv.exit.thread.i.i.i.i, %_ZNKSt7__cxx1112basic_stringIcSt11char_traitsIcESaIcEE11_M_is_localEv.exit.i.i.i.i
  call void @llvm.lifetime.end.p0(i64 40, ptr nonnull %2) #32
  invoke void @__cxa_rethrow() #34
          to label %46 unwind label %38

25:                                               ; preds = %9
  %26 = landingpad { ptr, i32 }
          cleanup
  br label %_ZN5boost10error_infoINS_3log11v2_mt_posix3ipc15object_name_tagENS3_11object_nameEED2Ev.exit14

27:                                               ; preds = %14
  %28 = landingpad { ptr, i32 }
          cleanup
  store ptr getelementptr inbounds inrange(-16, 32) (i8, ptr @_ZTVN5boost10error_infoINS_3log11v2_mt_posix3ipc15object_name_tagENS3_11object_nameEEE, i64 16), ptr %2, align 8, !tbaa !22
  %29 = getelementptr inbounds nuw i8, ptr %2, i64 8
  %30 = load ptr, ptr %29, align 8, !tbaa !10
  %31 = getelementptr inbounds nuw i8, ptr %2, i64 24
  %32 = icmp eq ptr %30, %31
  br i1 %32, label %_ZNKSt7__cxx1112basic_stringIcSt11char_traitsIcESaIcEE11_M_is_localEv.exit.thread.i.i.i.i13, label %_ZNKSt7__cxx1112basic_stringIcSt11char_traitsIcESaIcEE11_M_is_localEv.exit.i.i.i.i12

_ZNKSt7__cxx1112basic_stringIcSt11char_traitsIcESaIcEE11_M_is_localEv.exit.thread.i.i.i.i13: ; preds = %27
  %33 = getelementptr inbounds nuw i8, ptr %2, i64 16
  %34 = load i64, ptr %33, align 8, !tbaa !13
  %35 = icmp ult i64 %34, 16
  call void @llvm.assume(i1 %35)
  br label %_ZN5boost10error_infoINS_3log11v2_mt_posix3ipc15object_name_tagENS3_11object_nameEED2Ev.exit14

_ZNKSt7__cxx1112basic_stringIcSt11char_traitsIcESaIcEE11_M_is_localEv.exit.i.i.i.i12: ; preds = %27
  %36 = load i64, ptr %31, align 8, !tbaa !12
  %37 = add i64 %36, 1
  call void @_ZdlPvm(ptr noundef %30, i64 noundef %37) #36
  br label %_ZN5boost10error_infoINS_3log11v2_mt_posix3ipc15object_name_tagENS3_11object_nameEED2Ev.exit14

_ZN5boost10error_infoINS_3log11v2_mt_posix3ipc15object_name_tagENS3_11object_nameEED2Ev.exit14: ; preds = %_ZNKSt7__cxx1112basic_stringIcSt11char_traitsIcESaIcEE11_M_is_localEv.exit.i.i.i.i12, %_ZNKSt7__cxx1112basic_stringIcSt11char_traitsIcESaIcEE11_M_is_localEv.exit.thread.i.i.i.i13, %25
  %.pn = phi { ptr, i32 } [ %26, %25 ], [ %28, %_ZNKSt7__cxx1112basic_stringIcSt11char_traitsIcESaIcEE11_M_is_localEv.exit.thread.i.i.i.i13 ], [ %28, %_ZNKSt7__cxx1112basic_stringIcSt11char_traitsIcESaIcEE11_M_is_localEv.exit.i.i.i.i12 ]
  call void @llvm.lifetime.end.p0(i64 40, ptr nonnull %2) #32
  br label %40

38:                                               ; preds = %_ZN5boost10error_infoINS_3log11v2_mt_posix3ipc15object_name_tagENS3_11object_nameEED2Ev.exit
  %39 = landingpad { ptr, i32 }
          cleanup
  br label %40

40:                                               ; preds = %38, %_ZN5boost10error_infoINS_3log11v2_mt_posix3ipc15object_name_tagENS3_11object_nameEED2Ev.exit14
  %.pn10 = phi { ptr, i32 } [ %39, %38 ], [ %.pn, %_ZN5boost10error_infoINS_3log11v2_mt_posix3ipc15object_name_tagENS3_11object_nameEED2Ev.exit14 ]
  invoke void @__cxa_end_catch()
          to label %42 unwind label %43

41:                                               ; preds = %1
  ret void

42:                                               ; preds = %40, %4
  %.merged = phi { ptr, i32 } [ %5, %4 ], [ %.pn10, %40 ]
  resume { ptr, i32 } %.merged

43:                                               ; preds = %40
  %44 = landingpad { ptr, i32 }
          catch ptr null
  %45 = extractvalue { ptr, i32 } %44, 0
  call void @__clang_call_terminate(ptr %45) #33
  unreachable

46:                                               ; preds = %_ZN5boost10error_infoINS_3log11v2_mt_posix3ipc15object_name_tagENS3_11object_nameEED2Ev.exit
  unreachable
}